; Function Attrs: nounwind uwtable
define internal fastcc noundef i32 @ssl_tls13_postprocess_hrr(ptr noundef %0) unnamed_addr #0 {
  tail call void @mbedtls_ssl_session_reset_msg_layer(ptr noundef %0, i32 noundef 0) #12
  %2 = getelementptr inbounds nuw i8, ptr %0, i64 112
  %3 = load ptr, ptr %2, align 8, !tbaa !17
  %4 = getelementptr inbounds nuw i8, ptr %3, i64 2032
  %5 = load i16, ptr %4, align 8, !tbaa !62
  switch i16 %5, label %6 [
    i16 0, label %ssl_tls13_reset_key_share.exit.thread
    i16 29, label %mbedtls_ssl_tls13_named_group_is_ecdhe.exit.thread.i
    i16 25, label %mbedtls_ssl_tls13_named_group_is_ecdhe.exit.thread.i
    i16 24, label %mbedtls_ssl_tls13_named_group_is_ecdhe.exit.thread.i
    i16 23, label %mbedtls_ssl_tls13_named_group_is_ecdhe.exit.thread.i
    i16 30, label %mbedtls_ssl_tls13_named_group_is_ecdhe.exit.thread.i
  ]

6:                                                ; preds = %1
  %7 = add i16 %5, -261
  %8 = icmp ult i16 %7, -5
  br i1 %8, label %ssl_tls13_reset_key_share.exit.thread, label %mbedtls_ssl_tls13_named_group_is_ecdhe.exit.thread.i

mbedtls_ssl_tls13_named_group_is_ecdhe.exit.thread.i: ; preds = %6, %1, %1, %1, %1, %1
  %9 = getelementptr inbounds nuw i8, ptr %3, i64 632
  %10 = load i32, ptr %9, align 8, !tbaa !105
  %11 = tail call i32 @psa_destroy_key(i32 noundef %10) #12
  %.not13.i = icmp eq i32 %11, 0
  br i1 %.not13.i, label %ssl_tls13_reset_key_share.exit.thread9, label %ssl_tls13_reset_key_share.exit

ssl_tls13_reset_key_share.exit.thread9:           ; preds = %mbedtls_ssl_tls13_named_group_is_ecdhe.exit.thread.i
  %12 = load ptr, ptr %2, align 8, !tbaa !17
  %13 = getelementptr inbounds nuw i8, ptr %12, i64 632
  store i32 0, ptr %13, align 8, !tbaa !105
  br label %15

ssl_tls13_reset_key_share.exit:                   ; preds = %mbedtls_ssl_tls13_named_group_is_ecdhe.exit.thread.i
  %14 = tail call i32 @psa_status_to_mbedtls(i32 noundef range(i32 1, 0) %11, ptr noundef nonnull @psa_to_ssl_errors, i64 noundef 7, ptr noundef nonnull @psa_generic_status_to_mbedtls) #12
  tail call void @mbedtls_debug_print_ret(ptr noundef nonnull %0, i32 noundef 1, ptr noundef nonnull @.str, i32 noundef 193, ptr noundef nonnull @.str.35, i32 noundef %14) #12
  %.not = icmp eq i32 %14, 0
  br i1 %.not, label %ssl_tls13_reset_key_share.exit._crit_edge, label %ssl_tls13_reset_key_share.exit.thread

ssl_tls13_reset_key_share.exit._crit_edge:        ; preds = %ssl_tls13_reset_key_share.exit
  %.pre = load ptr, ptr %2, align 8, !tbaa !17
  br label %15

15:                                               ; preds = %ssl_tls13_reset_key_share.exit._crit_edge, %ssl_tls13_reset_key_share.exit.thread9
  %16 = phi ptr [ %.pre, %ssl_tls13_reset_key_share.exit._crit_edge ], [ %12, %ssl_tls13_reset_key_share.exit.thread9 ]
  %17 = getelementptr inbounds nuw i8, ptr %16, i64 16
  %18 = load ptr, ptr %17, align 8, !tbaa !82
  %19 = load i32, ptr %18, align 8, !tbaa !89
  %20 = getelementptr inbounds nuw i8, ptr %0, i64 104
  %21 = load ptr, ptr %20, align 8, !tbaa !7
  %22 = getelementptr inbounds nuw i8, ptr %21, i64 16
  store i32 %19, ptr %22, align 8, !tbaa !46
  br label %ssl_tls13_reset_key_share.exit.thread

ssl_tls13_reset_key_share.exit.thread:            ; preds = %6, %1, %ssl_tls13_reset_key_share.exit, %15
  %.0 = phi i32 [ 0, %15 ], [ %14, %ssl_tls13_reset_key_share.exit ], [ -27648, %1 ], [ -27648, %6 ]
  ret i32 %.0
}